target datalayout = "e-m:e-p270:32:32-p271:32:32-p272:64:64-i64:64-i128:128-f80:128-n8:16:32:64-S128"
target triple = "x86_64-pc-linux-gnu"

%class.Probabilities = type { %"class.std::map", %"class.std::map.0", %"class.std::map.8", %"class.std::map.13", %"class.std::map.18", %"class.std::map.18" }
%"class.std::map" = type { %"class.std::_Rb_tree" }
%"class.std::_Rb_tree" = type { %"struct.std::_Rb_tree<std::__cxx11::basic_string<char>, std::pair<const std::__cxx11::basic_string<char>, ProbName>, std::_Select1st<std::pair<const std::__cxx11::basic_string<char>, ProbName>>, std::less<std::__cxx11::basic_string<char>>>::_Rb_tree_impl" }
%"struct.std::_Rb_tree<std::__cxx11::basic_string<char>, std::pair<const std::__cxx11::basic_string<char>, ProbName>, std::_Select1st<std::pair<const std::__cxx11::basic_string<char>, ProbName>>, std::less<std::__cxx11::basic_string<char>>>::_Rb_tree_impl" = type { %"struct.std::_Rb_tree_key_compare", %"struct.std::_Rb_tree_header" }
%"struct.std::_Rb_tree_key_compare" = type { %"struct.std::less" }
%"struct.std::less" = type { i8 }
%"struct.std::_Rb_tree_header" = type { %"struct.std::_Rb_tree_node_base", i64 }
%"struct.std::_Rb_tree_node_base" = type { i32, ptr, ptr, ptr }
%"class.std::map.0" = type { %"class.std::_Rb_tree.1" }
%"class.std::_Rb_tree.1" = type { %"struct.std::_Rb_tree<ProbName, std::pair<const ProbName, std::__cxx11::basic_string<char>>, std::_Select1st<std::pair<const ProbName, std::__cxx11::basic_string<char>>>, std::less<ProbName>>::_Rb_tree_impl" }
%"struct.std::_Rb_tree<ProbName, std::pair<const ProbName, std::__cxx11::basic_string<char>>, std::_Select1st<std::pair<const ProbName, std::__cxx11::basic_string<char>>>, std::less<ProbName>>::_Rb_tree_impl" = type { %"struct.std::_Rb_tree_key_compare.5", %"struct.std::_Rb_tree_header" }
%"struct.std::_Rb_tree_key_compare.5" = type { %"struct.std::less.6" }
%"struct.std::less.6" = type { i8 }
%"class.std::map.8" = type { %"class.std::_Rb_tree.9" }
%"class.std::_Rb_tree.9" = type { %"struct.std::_Rb_tree<ProbName, std::pair<const ProbName, unsigned int>, std::_Select1st<std::pair<const ProbName, unsigned int>>, std::less<ProbName>>::_Rb_tree_impl" }
%"struct.std::_Rb_tree<ProbName, std::pair<const ProbName, unsigned int>, std::_Select1st<std::pair<const ProbName, unsigned int>>, std::less<ProbName>>::_Rb_tree_impl" = type { %"struct.std::_Rb_tree_key_compare.5", %"struct.std::_Rb_tree_header" }
%"class.std::map.13" = type { %"class.std::_Rb_tree.14" }
%"class.std::_Rb_tree.14" = type { %"struct.std::_Rb_tree<ProbName, std::pair<const ProbName, ProbElem *>, std::_Select1st<std::pair<const ProbName, ProbElem *>>, std::less<ProbName>>::_Rb_tree_impl" }
%"struct.std::_Rb_tree<ProbName, std::pair<const ProbName, ProbElem *>, std::_Select1st<std::pair<const ProbName, ProbElem *>>, std::less<ProbName>>::_Rb_tree_impl" = type { %"struct.std::_Rb_tree_key_compare.5", %"struct.std::_Rb_tree_header" }
%"class.std::map.18" = type { %"class.std::_Rb_tree.19" }
%"class.std::_Rb_tree.19" = type { %"struct.std::_Rb_tree<ProbName, std::pair<const ProbName, Filter *>, std::_Select1st<std::pair<const ProbName, Filter *>>, std::less<ProbName>>::_Rb_tree_impl" }
%"struct.std::_Rb_tree<ProbName, std::pair<const ProbName, Filter *>, std::_Select1st<std::pair<const ProbName, Filter *>>, std::less<ProbName>>::_Rb_tree_impl" = type { %"struct.std::_Rb_tree_key_compare.5", %"struct.std::_Rb_tree_header" }

; Function Attrs: mustprogress uwtable
define dso_local void @_ZN13Probabilities15set_single_nameEPKc8ProbNamej(ptr noundef nonnull align 8 dereferenceable(288) %0, ptr noundef %1, i32 noundef %2, i32 noundef %3) #4 align 2 {
  %5 = alloca ptr, align 8
  %6 = alloca ptr, align 8
  %7 = alloca i32, align 4
  %8 = alloca i32, align 4
  store ptr %0, ptr %5, align 8
  store ptr %1, ptr %6, align 8
  store i32 %2, ptr %7, align 4
  store i32 %3, ptr %8, align 4
  %9 = load ptr, ptr %5, align 8
  %10 = load i32, ptr %8, align 4
  %11 = getelementptr inbounds %class.Probabilities, ptr %9, i32 0, i32 2
  %12 = call noundef nonnull align 4 dereferenceable(4) ptr @_ZNSt3mapI8ProbNamejSt4lessIS0_ESaISt4pairIKS0_jEEEixERS4_(ptr noundef nonnull align 8 dereferenceable(48) %11, ptr noundef nonnull align 4 dereferenceable(4) %7)
  store i32 %10, ptr %12, align 4
  %13 = load ptr, ptr %6, align 8
  %14 = load i32, ptr %7, align 4
  call void @_ZN13Probabilities15set_single_nameEPKc8ProbName(ptr noundef nonnull align 8 dereferenceable(288) %9, ptr noundef %13, i32 noundef %14)
  ret void
}