; Function Attrs: mustprogress uwtable
define dso_local void @_ZN13Probabilities15set_single_nameEPKc8ProbNamej(ptr noundef nonnull align 8 dereferenceable(288) %0, ptr noundef %1, i32 noundef %2, i32 noundef %3) local_unnamed_addr #3 align 2 {
  %5 = alloca i32, align 4
  store i32 %2, ptr %5, align 4
  %6 = getelementptr inbounds i8, ptr %0, i64 96
  %7 = call noundef nonnull align 4 dereferenceable(4) ptr @_ZNSt3mapI8ProbNamejSt4lessIS0_ESaISt4pairIKS0_jEEEixERS4_(ptr noundef nonnull align 8 dereferenceable(48) %6, ptr noundef nonnull align 4 dereferenceable(4) %5)
  store i32 %3, ptr %7, align 4
  %8 = load i32, ptr %5, align 4
  call void @_ZN13Probabilities15set_single_nameEPKc8ProbName(ptr noundef nonnull align 8 dereferenceable(288) %0, ptr noundef %1, i32 noundef %8)
  ret void
}